; ModuleID = '24/2037.c'
source_filename = "24/2037.c"
target datalayout = "e-m:e-p270:32:32-p271:32:32-p272:64:64-i64:64-f80:128-n8:16:32:64-S128"
target triple = "x86_64-pc-linux-gnu"

; Function Attrs: noinline nounwind uwtable
define dso_local void @main() #0 {
  %1 = alloca [4000 x i8], align 16
  %2 = alloca i8*, align 8
  %3 = alloca [200 x [20 x i8]], align 16
  %4 = alloca i32, align 4
  %5 = alloca i32, align 4
  %6 = alloca i32, align 4
  %7 = alloca i32, align 4
  %8 = getelementptr inbounds [200 x [20 x i8]], [200 x [20 x i8]]* %3, i64 0, i64 0
  %9 = bitcast [20 x i8]* %8 to i8*
  call void @llvm.memset.p0i8.i64(i8* align 16 %9, i8 0, i64 200, i1 false)
  store i32 0, i32* %6, align 4
  store i32 0, i32* %7, align 4
  %10 = getelementptr inbounds [4000 x i8], [4000 x i8]* %1, i64 0, i64 0
  %11 = call i32 (i8*, ...) bitcast (i32 (...)* @gets to i32 (i8*, ...)*)(i8* %10)
  %12 = getelementptr inbounds [4000 x i8], [4000 x i8]* %1, i64 0, i64 0
  store i8* %12, i8** %2, align 8
  br label %13

13:                                               ; preds = %44, %0
  %14 = load i8*, i8** %2, align 8
  %15 = load i8, i8* %14, align 1
  %16 = sext i8 %15 to i32
  %17 = icmp ne i32 %16, 0
  br i1 %17, label %18, label %47

18:                                               ; preds = %13
  %19 = load i8*, i8** %2, align 8
  %20 = load i8, i8* %19, align 1
  %21 = sext i8 %20 to i32
  %22 = icmp ne i32 %21, 32
  br i1 %22, label %23, label %40

23:                                               ; preds = %18
  %24 = load i8*, i8** %2, align 8
  %25 = load i8, i8* %24, align 1
  %26 = sext i8 %25 to i32
  %27 = icmp ne i32 %26, 44
  br i1 %27, label %28, label %39

28:                                               ; preds = %23
  %29 = load i8*, i8** %2, align 8
  %30 = load i8, i8* %29, align 1
  %31 = load i32, i32* %7, align 4
  %32 = sext i32 %31 to i64
  %33 = getelementptr inbounds [200 x [20 x i8]], [200 x [20 x i8]]* %3, i64 0, i64 %32
  %34 = load i32, i32* %6, align 4
  %35 = sext i32 %34 to i64
  %36 = getelementptr inbounds [20 x i8], [20 x i8]* %33, i64 0, i64 %35
  store i8 %30, i8* %36, align 1
  %37 = load i32, i32* %6, align 4
  %38 = add nsw i32 %37, 1
  store i32 %38, i32* %6, align 4
  br label %39

39:                                               ; preds = %28, %23
  br label %43

40:                                               ; preds = %18
  %41 = load i32, i32* %7, align 4
  %42 = add nsw i32 %41, 1
  store i32 %42, i32* %7, align 4
  store i32 0, i32* %6, align 4
  br label %43

43:                                               ; preds = %40, %39
  br label %44

44:                                               ; preds = %43
  %45 = load i8*, i8** %2, align 8
  %46 = getelementptr inbounds i8, i8* %45, i32 1
  store i8* %46, i8** %2, align 8
  br label %13

47:                                               ; preds = %13
  store i32 0, i32* %4, align 4
  store i32 0, i32* %5, align 4
  store i32 0, i32* %6, align 4
  br label %48

48:                                               ; preds = %82, %47
  %49 = load i32, i32* %6, align 4
  %50 = load i32, i32* %7, align 4
  %51 = icmp sle i32 %49, %50
  br i1 %51, label %52, label %85

52:                                               ; preds = %48
  %53 = load i32, i32* %6, align 4
  %54 = sext i32 %53 to i64
  %55 = getelementptr inbounds [200 x [20 x i8]], [200 x [20 x i8]]* %3, i64 0, i64 %54
  %56 = getelementptr inbounds [20 x i8], [20 x i8]* %55, i64 0, i64 0
  %57 = call i64 @strlen(i8* %56) #4
  %58 = load i32, i32* %4, align 4
  %59 = sext i32 %58 to i64
  %60 = getelementptr inbounds [200 x [20 x i8]], [200 x [20 x i8]]* %3, i64 0, i64 %59
  %61 = getelementptr inbounds [20 x i8], [20 x i8]* %60, i64 0, i64 0
  %62 = call i64 @strlen(i8* %61) #4
  %63 = icmp ugt i64 %57, %62
  br i1 %63, label %64, label %66

64:                                               ; preds = %52
  %65 = load i32, i32* %6, align 4
  store i32 %65, i32* %4, align 4
  br label %81

66:                                               ; preds = %52
  %67 = load i32, i32* %6, align 4
  %68 = sext i32 %67 to i64
  %69 = getelementptr inbounds [200 x [20 x i8]], [200 x [20 x i8]]* %3, i64 0, i64 %68
  %70 = getelementptr inbounds [20 x i8], [20 x i8]* %69, i64 0, i64 0
  %71 = call i64 @strlen(i8* %70) #4
  %72 = load i32, i32* %5, align 4
  %73 = sext i32 %72 to i64
  %74 = getelementptr inbounds [200 x [20 x i8]], [200 x [20 x i8]]* %3, i64 0, i64 %73
  %75 = getelementptr inbounds [20 x i8], [20 x i8]* %74, i64 0, i64 0
  %76 = call i64 @strlen(i8* %75) #4
  %77 = icmp ult i64 %71, %76
  br i1 %77, label %78, label %80

78:                                               ; preds = %66
  %79 = load i32, i32* %6, align 4
  store i32 %79, i32* %5, align 4
  br label %80

80:                                               ; preds = %78, %66
  br label %81

81:                                               ; preds = %80, %64
  br label %82

82:                                               ; preds = %81
  %83 = load i32, i32* %6, align 4
  %84 = add nsw i32 %83, 1
  store i32 %84, i32* %6, align 4
  br label %48

85:                                               ; preds = %48
  %86 = load i32, i32* %4, align 4
  %87 = sext i32 %86 to i64
  %88 = getelementptr inbounds [200 x [20 x i8]], [200 x [20 x i8]]* %3, i64 0, i64 %87
  %89 = getelementptr inbounds [20 x i8], [20 x i8]* %88, i64 0, i64 0
  %90 = call i32 @puts(i8* %89)
  %91 = load i32, i32* %5, align 4
  %92 = sext i32 %91 to i64
  %93 = getelementptr inbounds [200 x [20 x i8]], [200 x [20 x i8]]* %3, i64 0, i64 %92
  %94 = getelementptr inbounds [20 x i8], [20 x i8]* %93, i64 0, i64 0
  %95 = call i32 @puts(i8* %94)
  ret void
}

; Function Attrs: argmemonly nounwind willreturn
declare void @llvm.memset.p0i8.i64(i8* nocapture writeonly, i8, i64, i1 immarg) #1

declare dso_local i32 @gets(...) #2

; Function Attrs: nounwind readonly
declare dso_local i64 @strlen(i8*) #3

declare dso_local i32 @puts(i8*) #2


!llvm.module.flags = !{!0}
!llvm.ident = !{!1}

!0 = !{i32 1, !"wchar_size", i32 4}
!1 = !{!"clang version 10.0.0-4ubuntu1 "}
